
./build/vadde64m1:     file format elf32-littleriscv


Disassembly of section .text.startup:

00000000 <main>:
   0:	f9010113          	addi	sp,sp,-112
   4:	12800793          	li	a5,296
   8:	0147a383          	lw	t2,20(a5)
   c:	0187a283          	lw	t0,24(a5)
  10:	06812623          	sw	s0,108(sp)
  14:	06912423          	sw	s1,104(sp)
  18:	0107a403          	lw	s0,16(a5)
  1c:	00c7a483          	lw	s1,12(a5)
  20:	07212223          	sw	s2,100(sp)
  24:	07312023          	sw	s3,96(sp)
  28:	0087a903          	lw	s2,8(a5)
  2c:	0047a983          	lw	s3,4(a5)
  30:	05412e23          	sw	s4,92(sp)
  34:	0007aa03          	lw	s4,0(a5)
  38:	02c7a503          	lw	a0,44(a5)
  3c:	0407a583          	lw	a1,64(a5)
  40:	04c7a703          	lw	a4,76(a5)
  44:	0207af03          	lw	t5,32(a5)
  48:	0247ae83          	lw	t4,36(a5)
  4c:	0287ae03          	lw	t3,40(a5)
  50:	0347a303          	lw	t1,52(a5)
  54:	0387a883          	lw	a7,56(a5)
  58:	03c7a803          	lw	a6,60(a5)
  5c:	0447a603          	lw	a2,68(a5)
  60:	0487a683          	lw	a3,72(a5)
  64:	01c7af83          	lw	t6,28(a5)
  68:	0307a783          	lw	a5,48(a5)
  6c:	01412023          	sw	s4,0(sp)
  70:	01312223          	sw	s3,4(sp)
  74:	01212423          	sw	s2,8(sp)
  78:	00912623          	sw	s1,12(sp)
  7c:	00812823          	sw	s0,16(sp)
  80:	00712a23          	sw	t2,20(sp)
  84:	00512c23          	sw	t0,24(sp)
  88:	01f12e23          	sw	t6,28(sp)
  8c:	02a12623          	sw	a0,44(sp)
  90:	02f12823          	sw	a5,48(sp)
  94:	04b12023          	sw	a1,64(sp)
  98:	04e12623          	sw	a4,76(sp)
  9c:	03e12023          	sw	t5,32(sp)
  a0:	03d12223          	sw	t4,36(sp)
  a4:	03c12423          	sw	t3,40(sp)
  a8:	02810513          	addi	a0,sp,40
  ac:	02612a23          	sw	t1,52(sp)
  b0:	03112c23          	sw	a7,56(sp)
  b4:	03012e23          	sw	a6,60(sp)
  b8:	04c12223          	sw	a2,68(sp)
  bc:	04d12423          	sw	a3,72(sp)
  c0:	00010593          	mv	a1,sp
  c4:	00500713          	li	a4,5
  c8:	00000793          	li	a5,0
  cc:	00c776d7          	vsetvli	a3,a4,e64,m1,tu,mu,d1
  d0:	40d70833          	sub	a6,a4,a3
  d4:	01073633          	sltu	a2,a4,a6
  d8:	40c78633          	sub	a2,a5,a2
  dc:	00080713          	mv	a4,a6
  e0:	00060793          	mv	a5,a2
  e4:	0205f087          	vle64.v	v1,(a1)
  e8:	00369693          	slli	a3,a3,0x3
  ec:	00d585b3          	add	a1,a1,a3
  f0:	02057107          	vle64.v	v2,(a0)
  f4:	00d50533          	add	a0,a0,a3
  f8:	022081d7          	vadd.vv	v3,v2,v1
  fc:	00c866b3          	or	a3,a6,a2
 100:	fc0696e3          	bnez	a3,cc <main+0xcc>
 104:	c0001073          	unimp
 108:	06c12403          	lw	s0,108(sp)
 10c:	06812483          	lw	s1,104(sp)
 110:	06412903          	lw	s2,100(sp)
 114:	06012983          	lw	s3,96(sp)
 118:	05c12a03          	lw	s4,92(sp)
 11c:	00000513          	li	a0,0
 120:	07010113          	addi	sp,sp,112
 124:	00008067          	ret
