
./build/vse64m1:     file format elf32-littleriscv


Disassembly of section .text.startup:

00000000 <main>:
   0:	f6010113          	addi	sp,sp,-160
   4:	13800793          	li	a5,312
   8:	0147a383          	lw	t2,20(a5)
   c:	0187a283          	lw	t0,24(a5)
  10:	08812e23          	sw	s0,156(sp)
  14:	08912c23          	sw	s1,152(sp)
  18:	0107a403          	lw	s0,16(a5)
  1c:	00c7a483          	lw	s1,12(a5)
  20:	09212a23          	sw	s2,148(sp)
  24:	09312823          	sw	s3,144(sp)
  28:	0087a903          	lw	s2,8(a5)
  2c:	0047a983          	lw	s3,4(a5)
  30:	09412623          	sw	s4,140(sp)
  34:	0007aa03          	lw	s4,0(a5)
  38:	02c7a703          	lw	a4,44(a5)
  3c:	0387a883          	lw	a7,56(a5)
  40:	0407a503          	lw	a0,64(a5)
  44:	0447a583          	lw	a1,68(a5)
  48:	0207af03          	lw	t5,32(a5)
  4c:	0247ae83          	lw	t4,36(a5)
  50:	0287ae03          	lw	t3,40(a5)
  54:	0347a303          	lw	t1,52(a5)
  58:	03c7a803          	lw	a6,60(a5)
  5c:	0487a603          	lw	a2,72(a5)
  60:	04c7a683          	lw	a3,76(a5)
  64:	01c7af83          	lw	t6,28(a5)
  68:	0307a783          	lw	a5,48(a5)
  6c:	01412423          	sw	s4,8(sp)
  70:	01312623          	sw	s3,12(sp)
  74:	01212823          	sw	s2,16(sp)
  78:	00912a23          	sw	s1,20(sp)
  7c:	00812c23          	sw	s0,24(sp)
  80:	00712e23          	sw	t2,28(sp)
  84:	02512023          	sw	t0,32(sp)
  88:	03f12223          	sw	t6,36(sp)
  8c:	02e12a23          	sw	a4,52(sp)
  90:	02f12c23          	sw	a5,56(sp)
  94:	05112023          	sw	a7,64(sp)
  98:	04a12423          	sw	a0,72(sp)
  9c:	04b12623          	sw	a1,76(sp)
  a0:	03e12423          	sw	t5,40(sp)
  a4:	03d12623          	sw	t4,44(sp)
  a8:	03c12823          	sw	t3,48(sp)
  ac:	00500713          	li	a4,5
  b0:	00000793          	li	a5,0
  b4:	02612e23          	sw	t1,60(sp)
  b8:	05012223          	sw	a6,68(sp)
  bc:	04c12823          	sw	a2,80(sp)
  c0:	04d12a23          	sw	a3,84(sp)
  c4:	00810513          	addi	a0,sp,8
  c8:	03010593          	addi	a1,sp,48
  cc:	05810893          	addi	a7,sp,88
  d0:	00c776d7          	vsetvli	a3,a4,e64,m1,tu,mu,d1
  d4:	40d70833          	sub	a6,a4,a3
  d8:	01073633          	sltu	a2,a4,a6
  dc:	40c78633          	sub	a2,a5,a2
  e0:	00080713          	mv	a4,a6
  e4:	00060793          	mv	a5,a2
  e8:	02057087          	vle64.v	v1,(a0)
  ec:	00369693          	slli	a3,a3,0x3
  f0:	00d50533          	add	a0,a0,a3
  f4:	0205f107          	vle64.v	v2,(a1)
  f8:	00d585b3          	add	a1,a1,a3
  fc:	022081d7          	vadd.vv	v3,v2,v1
 100:	0208f1a7          	vse64.v	v3,(a7)
 104:	0208f207          	vle64.v	v4,(a7)
 108:	00c866b3          	or	a3,a6,a2
 10c:	fc0692e3          	bnez	a3,d0 <main+0xd0>
 110:	c0001073          	unimp
 114:	09c12403          	lw	s0,156(sp)
 118:	09812483          	lw	s1,152(sp)
 11c:	09412903          	lw	s2,148(sp)
 120:	09012983          	lw	s3,144(sp)
 124:	08c12a03          	lw	s4,140(sp)
 128:	00000513          	li	a0,0
 12c:	0a010113          	addi	sp,sp,160
 130:	00008067          	ret
